target datalayout = "e-m:e-p270:32:32-p271:32:32-p272:64:64-i64:64-i128:128-f80:128-n8:16:32:64-S128"
target triple = "x86_64-pc-linux-gnu"

%struct.Rtm_Man_t_ = type { ptr, ptr, ptr, ptr, ptr, i32, i32 }

; Function Attrs: inlinehint nounwind uwtable
define internal i32 @Rtm_InitWordsNum(i32 noundef %0) #5 {
  %2 = alloca i32, align 4
  store i32 %0, ptr %2, align 4, !tbaa !21
  %3 = load i32, ptr %2, align 4, !tbaa !21
  %4 = ashr i32 %3, 4
  %5 = load i32, ptr %2, align 4, !tbaa !21
  %6 = and i32 %5, 15
  %7 = icmp sgt i32 %6, 0
  %8 = zext i1 %7 to i32
  %9 = add nsw i32 %4, %8
  ret i32 %9
}

; Function Attrs: inlinehint nounwind uwtable
define internal i32 @Abc_MaxInt(i32 noundef %0, i32 noundef %1) #5 {
  %3 = alloca i32, align 4
  %4 = alloca i32, align 4
  store i32 %0, ptr %3, align 4, !tbaa !21
  store i32 %1, ptr %4, align 4, !tbaa !21
  %5 = load i32, ptr %3, align 4, !tbaa !21
  %6 = load i32, ptr %4, align 4, !tbaa !21
  %7 = icmp sgt i32 %5, %6
  br i1 %7, label %8, label %10

8:                                                ; preds = %2
  %9 = load i32, ptr %3, align 4, !tbaa !21
  br label %12

10:                                               ; preds = %2
  %11 = load i32, ptr %4, align 4, !tbaa !21
  br label %12

12:                                               ; preds = %10, %8
  %13 = phi i32 [ %9, %8 ], [ %11, %10 ]
  ret i32 %13
}

; Function Attrs: inlinehint nounwind uwtable
define internal void @Rtm_ObjAddFirst1(ptr noundef %0, i32 noundef %1) #5 {
  %3 = alloca ptr, align 8
  %4 = alloca i32, align 4
  store ptr %0, ptr %3, align 8, !tbaa !8
  store i32 %1, ptr %4, align 4, !tbaa !21
  %5 = load ptr, ptr %3, align 8, !tbaa !8
  %6 = load i32, ptr %5, align 8
  %7 = lshr i32 %6, 12
  %8 = zext i32 %7 to i64
  %9 = trunc i64 %8 to i32
  %10 = shl i32 %9, 2
  %11 = load i32, ptr %4, align 4, !tbaa !21
  %12 = or i32 %10, %11
  %13 = zext i32 %12 to i64
  %14 = load ptr, ptr %3, align 8, !tbaa !8
  %15 = trunc i64 %13 to i32
  %16 = load i32, ptr %14, align 8
  %17 = and i32 %15, 1048575
  %18 = shl i32 %17, 12
  %19 = and i32 %16, 4095
  %20 = or i32 %19, %18
  store i32 %20, ptr %14, align 8
  %21 = load ptr, ptr %3, align 8, !tbaa !8
  %22 = load i32, ptr %21, align 8
  %23 = and i32 %22, 4095
  %24 = zext i32 %23 to i64
  %25 = add i64 %24, 1
  %26 = trunc i64 %25 to i32
  %27 = load i32, ptr %21, align 8
  %28 = and i32 %26, 4095
  %29 = and i32 %27, -4096
  %30 = or i32 %29, %28
  store i32 %30, ptr %21, align 8
  ret void
}

; Function Attrs: nounwind uwtable
define internal void @Rtm_ObjAddFirst2(ptr noundef %0, ptr noundef %1, i32 noundef %2) #0 {
  %4 = alloca ptr, align 8
  %5 = alloca ptr, align 8
  %6 = alloca i32, align 4
  %7 = alloca ptr, align 8
  %8 = alloca ptr, align 8
  %9 = alloca i32, align 4
  store ptr %0, ptr %4, align 8, !tbaa !3
  store ptr %1, ptr %5, align 8, !tbaa !8
  store i32 %2, ptr %6, align 4, !tbaa !21
  call void @llvm.lifetime.start.p0(i64 8, ptr %7) #11
  %10 = load ptr, ptr %4, align 8, !tbaa !3
  %11 = getelementptr inbounds nuw %struct.Rtm_Man_t_, ptr %10, i32 0, i32 4
  %12 = load ptr, ptr %11, align 8, !tbaa !39
  %13 = load ptr, ptr %5, align 8, !tbaa !8
  %14 = load i32, ptr %13, align 8
  %15 = lshr i32 %14, 12
  %16 = zext i32 %15 to i64
  %17 = trunc i64 %16 to i32
  %18 = sext i32 %17 to i64
  %19 = getelementptr inbounds i32, ptr %12, i64 %18
  store ptr %19, ptr %7, align 8, !tbaa !82
  call void @llvm.lifetime.start.p0(i64 8, ptr %8) #11
  %20 = load ptr, ptr %7, align 8, !tbaa !82
  %21 = load ptr, ptr %5, align 8, !tbaa !8
  %22 = load i32, ptr %21, align 8
  %23 = and i32 %22, 4095
  %24 = zext i32 %23 to i64
  %25 = add i64 %24, 1
  %26 = trunc i64 %25 to i32
  %27 = load i32, ptr %21, align 8
  %28 = and i32 %26, 4095
  %29 = and i32 %27, -4096
  %30 = or i32 %29, %28
  store i32 %30, ptr %21, align 8
  %31 = zext i32 %28 to i64
  %32 = trunc i64 %31 to i32
  %33 = call i32 @Rtm_InitWordsNum(i32 noundef %32)
  %34 = sext i32 %33 to i64
  %35 = getelementptr inbounds i32, ptr %20, i64 %34
  store ptr %35, ptr %8, align 8, !tbaa !82
  call void @llvm.lifetime.start.p0(i64 4, ptr %9) #11
  br label %36

36:                                               ; preds = %40, %3
  %37 = load ptr, ptr %7, align 8, !tbaa !82
  %38 = load ptr, ptr %8, align 8, !tbaa !82
  %39 = icmp ult ptr %37, %38
  br i1 %39, label %40, label %53

40:                                               ; preds = %36
  %41 = load ptr, ptr %7, align 8, !tbaa !82
  %42 = load i32, ptr %41, align 4, !tbaa !21
  %43 = lshr i32 %42, 30
  store i32 %43, ptr %9, align 4, !tbaa !21
  %44 = load ptr, ptr %7, align 8, !tbaa !82
  %45 = load i32, ptr %44, align 4, !tbaa !21
  %46 = shl i32 %45, 2
  %47 = load i32, ptr %6, align 4, !tbaa !21
  %48 = or i32 %46, %47
  %49 = load ptr, ptr %7, align 8, !tbaa !82
  store i32 %48, ptr %49, align 4, !tbaa !21
  %50 = load i32, ptr %9, align 4, !tbaa !21
  store i32 %50, ptr %6, align 4, !tbaa !21
  %51 = load ptr, ptr %7, align 8, !tbaa !82
  %52 = getelementptr inbounds nuw i32, ptr %51, i32 1
  store ptr %52, ptr %7, align 8, !tbaa !82
  br label %36, !llvm.loop !110

53:                                               ; preds = %36
  call void @llvm.lifetime.end.p0(i64 4, ptr %9) #11
  call void @llvm.lifetime.end.p0(i64 8, ptr %8) #11
  call void @llvm.lifetime.end.p0(i64 8, ptr %7) #11
  ret void
}

; Function Attrs: nounwind uwtable
define internal void @Rtm_ObjTransferToBigger(ptr noundef %0, ptr noundef %1) #0 {
  %3 = alloca ptr, align 8
  %4 = alloca ptr, align 8
  %5 = alloca i32, align 4
  %6 = alloca i32, align 4
  store ptr %0, ptr %3, align 8, !tbaa !3
  store ptr %1, ptr %4, align 8, !tbaa !8
  call void @llvm.lifetime.start.p0(i64 4, ptr %5) #11
  %7 = load ptr, ptr %4, align 8, !tbaa !8
  %8 = load i32, ptr %7, align 8
  %9 = and i32 %8, 4095
  %10 = zext i32 %9 to i64
  %11 = trunc i64 %10 to i32
  %12 = add nsw i32 %11, 1
  %13 = ashr i32 %12, 4
  store i32 %13, ptr %5, align 4, !tbaa !21
  %14 = load ptr, ptr %3, align 8, !tbaa !3
  %15 = getelementptr inbounds nuw %struct.Rtm_Man_t_, ptr %14, i32 0, i32 5
  %16 = load i32, ptr %15, align 8, !tbaa !102
  %17 = load i32, ptr %5, align 4, !tbaa !21
  %18 = add nsw i32 %16, %17
  %19 = add nsw i32 %18, 1
  %20 = load ptr, ptr %3, align 8, !tbaa !3
  %21 = getelementptr inbounds nuw %struct.Rtm_Man_t_, ptr %20, i32 0, i32 6
  %22 = load i32, ptr %21, align 4, !tbaa !109
  %23 = icmp sgt i32 %19, %22
  br i1 %23, label %24, label %54

24:                                               ; preds = %2
  call void @llvm.lifetime.start.p0(i64 4, ptr %6) #11
  %25 = load ptr, ptr %3, align 8, !tbaa !3
  %26 = getelementptr inbounds nuw %struct.Rtm_Man_t_, ptr %25, i32 0, i32 6
  %27 = load i32, ptr %26, align 4, !tbaa !109
  %28 = mul nsw i32 2, %27
  %29 = call i32 @Abc_MaxInt(i32 noundef %28, i32 noundef 1024)
  store i32 %29, ptr %6, align 4, !tbaa !21
  %30 = load ptr, ptr %3, align 8, !tbaa !3
  %31 = getelementptr inbounds nuw %struct.Rtm_Man_t_, ptr %30, i32 0, i32 4
  %32 = load ptr, ptr %31, align 8, !tbaa !39
  %33 = icmp ne ptr %32, null
  br i1 %33, label %34, label %42

34:                                               ; preds = %24
  %35 = load ptr, ptr %3, align 8, !tbaa !3
  %36 = getelementptr inbounds nuw %struct.Rtm_Man_t_, ptr %35, i32 0, i32 4
  %37 = load ptr, ptr %36, align 8, !tbaa !39
  %38 = load i32, ptr %6, align 4, !tbaa !21
  %39 = sext i32 %38 to i64
  %40 = mul i64 4, %39
  %41 = call ptr @realloc(ptr noundef %37, i64 noundef %40) #14
  br label %47

42:                                               ; preds = %24
  %43 = load i32, ptr %6, align 4, !tbaa !21
  %44 = sext i32 %43 to i64
  %45 = mul i64 4, %44
  %46 = call noalias ptr @malloc(i64 noundef %45) #12
  br label %47

47:                                               ; preds = %42, %34
  %48 = phi ptr [ %41, %34 ], [ %46, %42 ]
  %49 = load ptr, ptr %3, align 8, !tbaa !3
  %50 = getelementptr inbounds nuw %struct.Rtm_Man_t_, ptr %49, i32 0, i32 4
  store ptr %48, ptr %50, align 8, !tbaa !39
  %51 = load i32, ptr %6, align 4, !tbaa !21
  %52 = load ptr, ptr %3, align 8, !tbaa !3
  %53 = getelementptr inbounds nuw %struct.Rtm_Man_t_, ptr %52, i32 0, i32 6
  store i32 %51, ptr %53, align 4, !tbaa !109
  call void @llvm.lifetime.end.p0(i64 4, ptr %6) #11
  br label %54

54:                                               ; preds = %47, %2
  %55 = load ptr, ptr %3, align 8, !tbaa !3
  %56 = getelementptr inbounds nuw %struct.Rtm_Man_t_, ptr %55, i32 0, i32 4
  %57 = load ptr, ptr %56, align 8, !tbaa !39
  %58 = load ptr, ptr %3, align 8, !tbaa !3
  %59 = getelementptr inbounds nuw %struct.Rtm_Man_t_, ptr %58, i32 0, i32 5
  %60 = load i32, ptr %59, align 8, !tbaa !102
  %61 = sext i32 %60 to i64
  %62 = getelementptr inbounds i32, ptr %57, i64 %61
  %63 = load ptr, ptr %3, align 8, !tbaa !3
  %64 = getelementptr inbounds nuw %struct.Rtm_Man_t_, ptr %63, i32 0, i32 4
  %65 = load ptr, ptr %64, align 8, !tbaa !39
  %66 = load ptr, ptr %4, align 8, !tbaa !8
  %67 = load i32, ptr %66, align 8
  %68 = lshr i32 %67, 12
  %69 = zext i32 %68 to i64
  %70 = trunc i64 %69 to i32
  %71 = sext i32 %70 to i64
  %72 = getelementptr inbounds i32, ptr %65, i64 %71
  %73 = load i32, ptr %5, align 4, !tbaa !21
  %74 = sext i32 %73 to i64
  %75 = mul i64 4, %74
  call void @llvm.memcpy.p0.p0.i64(ptr align 4 %62, ptr align 4 %72, i64 %75, i1 false)
  %76 = load ptr, ptr %3, align 8, !tbaa !3
  %77 = getelementptr inbounds nuw %struct.Rtm_Man_t_, ptr %76, i32 0, i32 4
  %78 = load ptr, ptr %77, align 8, !tbaa !39
  %79 = load ptr, ptr %3, align 8, !tbaa !3
  %80 = getelementptr inbounds nuw %struct.Rtm_Man_t_, ptr %79, i32 0, i32 5
  %81 = load i32, ptr %80, align 8, !tbaa !102
  %82 = load i32, ptr %5, align 4, !tbaa !21
  %83 = add nsw i32 %81, %82
  %84 = sext i32 %83 to i64
  %85 = getelementptr inbounds i32, ptr %78, i64 %84
  store i32 0, ptr %85, align 4, !tbaa !21
  %86 = load ptr, ptr %3, align 8, !tbaa !3
  %87 = getelementptr inbounds nuw %struct.Rtm_Man_t_, ptr %86, i32 0, i32 5
  %88 = load i32, ptr %87, align 8, !tbaa !102
  %89 = sext i32 %88 to i64
  %90 = load ptr, ptr %4, align 8, !tbaa !8
  %91 = trunc i64 %89 to i32
  %92 = load i32, ptr %90, align 8
  %93 = and i32 %91, 1048575
  %94 = shl i32 %93, 12
  %95 = and i32 %92, 4095
  %96 = or i32 %95, %94
  store i32 %96, ptr %90, align 8
  %97 = load i32, ptr %5, align 4, !tbaa !21
  %98 = add nsw i32 %97, 1
  %99 = load ptr, ptr %3, align 8, !tbaa !3
  %100 = getelementptr inbounds nuw %struct.Rtm_Man_t_, ptr %99, i32 0, i32 5
  %101 = load i32, ptr %100, align 8, !tbaa !102
  %102 = add nsw i32 %101, %98
  store i32 %102, ptr %100, align 8, !tbaa !102
  call void @llvm.lifetime.end.p0(i64 4, ptr %5) #11
  ret void
}

; Function Attrs: nounwind uwtable
define internal void @Rtm_ObjTransferToBig(ptr noundef %0, ptr noundef %1) #0 {
  %3 = alloca ptr, align 8
  %4 = alloca ptr, align 8
  %5 = alloca i32, align 4
  store ptr %0, ptr %3, align 8, !tbaa !3
  store ptr %1, ptr %4, align 8, !tbaa !8
  %6 = load ptr, ptr %3, align 8, !tbaa !3
  %7 = getelementptr inbounds nuw %struct.Rtm_Man_t_, ptr %6, i32 0, i32 5
  %8 = load i32, ptr %7, align 8, !tbaa !102
  %9 = add nsw i32 %8, 1
  %10 = load ptr, ptr %3, align 8, !tbaa !3
  %11 = getelementptr inbounds nuw %struct.Rtm_Man_t_, ptr %10, i32 0, i32 6
  %12 = load i32, ptr %11, align 4, !tbaa !109
  %13 = icmp sgt i32 %9, %12
  br i1 %13, label %14, label %44

14:                                               ; preds = %2
  call void @llvm.lifetime.start.p0(i64 4, ptr %5) #11
  %15 = load ptr, ptr %3, align 8, !tbaa !3
  %16 = getelementptr inbounds nuw %struct.Rtm_Man_t_, ptr %15, i32 0, i32 6
  %17 = load i32, ptr %16, align 4, !tbaa !109
  %18 = mul nsw i32 2, %17
  %19 = call i32 @Abc_MaxInt(i32 noundef %18, i32 noundef 1024)
  store i32 %19, ptr %5, align 4, !tbaa !21
  %20 = load ptr, ptr %3, align 8, !tbaa !3
  %21 = getelementptr inbounds nuw %struct.Rtm_Man_t_, ptr %20, i32 0, i32 4
  %22 = load ptr, ptr %21, align 8, !tbaa !39
  %23 = icmp ne ptr %22, null
  br i1 %23, label %24, label %32

24:                                               ; preds = %14
  %25 = load ptr, ptr %3, align 8, !tbaa !3
  %26 = getelementptr inbounds nuw %struct.Rtm_Man_t_, ptr %25, i32 0, i32 4
  %27 = load ptr, ptr %26, align 8, !tbaa !39
  %28 = load i32, ptr %5, align 4, !tbaa !21
  %29 = sext i32 %28 to i64
  %30 = mul i64 4, %29
  %31 = call ptr @realloc(ptr noundef %27, i64 noundef %30) #14
  br label %37

32:                                               ; preds = %14
  %33 = load i32, ptr %5, align 4, !tbaa !21
  %34 = sext i32 %33 to i64
  %35 = mul i64 4, %34
  %36 = call noalias ptr @malloc(i64 noundef %35) #12
  br label %37

37:                                               ; preds = %32, %24
  %38 = phi ptr [ %31, %24 ], [ %36, %32 ]
  %39 = load ptr, ptr %3, align 8, !tbaa !3
  %40 = getelementptr inbounds nuw %struct.Rtm_Man_t_, ptr %39, i32 0, i32 4
  store ptr %38, ptr %40, align 8, !tbaa !39
  %41 = load i32, ptr %5, align 4, !tbaa !21
  %42 = load ptr, ptr %3, align 8, !tbaa !3
  %43 = getelementptr inbounds nuw %struct.Rtm_Man_t_, ptr %42, i32 0, i32 6
  store i32 %41, ptr %43, align 4, !tbaa !109
  call void @llvm.lifetime.end.p0(i64 4, ptr %5) #11
  br label %44

44:                                               ; preds = %37, %2
  %45 = load ptr, ptr %4, align 8, !tbaa !8
  %46 = load i32, ptr %45, align 8
  %47 = lshr i32 %46, 12
  %48 = zext i32 %47 to i64
  %49 = trunc i64 %48 to i32
  %50 = load ptr, ptr %3, align 8, !tbaa !3
  %51 = getelementptr inbounds nuw %struct.Rtm_Man_t_, ptr %50, i32 0, i32 4
  %52 = load ptr, ptr %51, align 8, !tbaa !39
  %53 = load ptr, ptr %3, align 8, !tbaa !3
  %54 = getelementptr inbounds nuw %struct.Rtm_Man_t_, ptr %53, i32 0, i32 5
  %55 = load i32, ptr %54, align 8, !tbaa !102
  %56 = sext i32 %55 to i64
  %57 = getelementptr inbounds i32, ptr %52, i64 %56
  store i32 %49, ptr %57, align 4, !tbaa !21
  %58 = load ptr, ptr %3, align 8, !tbaa !3
  %59 = getelementptr inbounds nuw %struct.Rtm_Man_t_, ptr %58, i32 0, i32 5
  %60 = load i32, ptr %59, align 8, !tbaa !102
  %61 = add nsw i32 %60, 1
  store i32 %61, ptr %59, align 8, !tbaa !102
  %62 = sext i32 %60 to i64
  %63 = load ptr, ptr %4, align 8, !tbaa !8
  %64 = trunc i64 %62 to i32
  %65 = load i32, ptr %63, align 8
  %66 = and i32 %64, 1048575
  %67 = shl i32 %66, 12
  %68 = and i32 %65, 4095
  %69 = or i32 %68, %67
  store i32 %69, ptr %63, align 8
  ret void
}

; Function Attrs: nounwind uwtable
define internal void @Rtm_ObjAddFirst(ptr noundef %0, ptr noundef %1, i32 noundef %2) #0 {
  %4 = alloca ptr, align 8
  %5 = alloca ptr, align 8
  %6 = alloca i32, align 4
  store ptr %0, ptr %4, align 8, !tbaa !3
  store ptr %1, ptr %5, align 8, !tbaa !8
  store i32 %2, ptr %6, align 4, !tbaa !21
  %7 = load ptr, ptr %5, align 8, !tbaa !8
  %8 = load i32, ptr %7, align 8
  %9 = and i32 %8, 4095
  %10 = zext i32 %9 to i64
  %11 = trunc i64 %10 to i32
  %12 = icmp eq i32 %11, 10
  br i1 %12, label %13, label %16

13:                                               ; preds = %3
  %14 = load ptr, ptr %4, align 8, !tbaa !3
  %15 = load ptr, ptr %5, align 8, !tbaa !8
  call void @Rtm_ObjTransferToBig(ptr noundef %14, ptr noundef %15)
  br label %28

16:                                               ; preds = %3
  %17 = load ptr, ptr %5, align 8, !tbaa !8
  %18 = load i32, ptr %17, align 8
  %19 = and i32 %18, 4095
  %20 = zext i32 %19 to i64
  %21 = trunc i64 %20 to i32
  %22 = and i32 %21, 15
  %23 = icmp eq i32 %22, 15
  br i1 %23, label %24, label %27

24:                                               ; preds = %16
  %25 = load ptr, ptr %4, align 8, !tbaa !3
  %26 = load ptr, ptr %5, align 8, !tbaa !8
  call void @Rtm_ObjTransferToBigger(ptr noundef %25, ptr noundef %26)
  br label %27

27:                                               ; preds = %24, %16
  br label %28

28:                                               ; preds = %27, %13
  %29 = load ptr, ptr %5, align 8, !tbaa !8
  %30 = load i32, ptr %29, align 8
  %31 = and i32 %30, 4095
  %32 = zext i32 %31 to i64
  %33 = trunc i64 %32 to i32
  %34 = icmp sge i32 %33, 10
  br i1 %34, label %35, label %39

35:                                               ; preds = %28
  %36 = load ptr, ptr %4, align 8, !tbaa !3
  %37 = load ptr, ptr %5, align 8, !tbaa !8
  %38 = load i32, ptr %6, align 4, !tbaa !21
  call void @Rtm_ObjAddFirst2(ptr noundef %36, ptr noundef %37, i32 noundef %38)
  br label %42

39:                                               ; preds = %28
  %40 = load ptr, ptr %5, align 8, !tbaa !8
  %41 = load i32, ptr %6, align 4, !tbaa !21
  call void @Rtm_ObjAddFirst1(ptr noundef %40, i32 noundef %41)
  br label %42

42:                                               ; preds = %39, %35
  ret void
}