; Function Attrs: nounwind uwtable
define internal fastcc void @Rtm_ObjAddFirst(ptr noundef captures(none) %0, ptr noundef captures(none) %1, i32 noundef range(i32 1, 4) %2) unnamed_addr #2 {
  %4 = load i32, ptr %1, align 8
  %5 = and i32 %4, 4095
  %6 = icmp eq i32 %5, 10
  br i1 %6, label %7, label %37

7:                                                ; preds = %3
  %8 = getelementptr inbounds nuw i8, ptr %0, i64 40
  %9 = load i32, ptr %8, align 8, !tbaa !48
  %10 = getelementptr inbounds nuw i8, ptr %0, i64 44
  %11 = load i32, ptr %10, align 4, !tbaa !49
  %.not.i = icmp slt i32 %9, %11
  br i1 %.not.i, label %._crit_edge.i, label %12

._crit_edge.i:                                    ; preds = %7
  %.phi.trans.insert.i = getelementptr inbounds nuw i8, ptr %0, i64 32
  %.pre.i = load ptr, ptr %.phi.trans.insert.i, align 8, !tbaa !33
  br label %Rtm_ObjTransferToBig.exit

12:                                               ; preds = %7
  %13 = shl nsw i32 %11, 1
  %14 = tail call range(i32 -2147483647, -2147483648) i32 @llvm.smax.i32(i32 %13, i32 1024)
  %15 = getelementptr inbounds nuw i8, ptr %0, i64 32
  %16 = load ptr, ptr %15, align 8, !tbaa !33
  %.not15.i = icmp eq ptr %16, null
  %17 = zext nneg i32 %14 to i64
  %18 = shl nuw nsw i64 %17, 2
  br i1 %.not15.i, label %21, label %19

19:                                               ; preds = %12
  %20 = tail call ptr @realloc(ptr noundef nonnull %16, i64 noundef %18) #24
  %.pre16.pre.i = load i32, ptr %8, align 8, !tbaa !48
  br label %23

21:                                               ; preds = %12
  %22 = tail call noalias ptr @malloc(i64 noundef %18) #22
  br label %23

23:                                               ; preds = %21, %19
  %.pre16.i = phi i32 [ %.pre16.pre.i, %19 ], [ %9, %21 ]
  %24 = phi ptr [ %20, %19 ], [ %22, %21 ]
  store ptr %24, ptr %15, align 8, !tbaa !33
  store i32 %14, ptr %10, align 4, !tbaa !49
  %.pre = load i32, ptr %1, align 8
  br label %Rtm_ObjTransferToBig.exit

Rtm_ObjTransferToBig.exit:                        ; preds = %._crit_edge.i, %23
  %25 = phi i32 [ %4, %._crit_edge.i ], [ %.pre, %23 ]
  %26 = phi i32 [ %9, %._crit_edge.i ], [ %.pre16.i, %23 ]
  %27 = phi ptr [ %.pre.i, %._crit_edge.i ], [ %24, %23 ]
  %28 = lshr i32 %25, 12
  %29 = sext i32 %26 to i64
  %30 = getelementptr inbounds i32, ptr %27, i64 %29
  store i32 %28, ptr %30, align 4, !tbaa !29
  %31 = load i32, ptr %8, align 8, !tbaa !48
  %32 = add nsw i32 %31, 1
  store i32 %32, ptr %8, align 8, !tbaa !48
  %33 = load i32, ptr %1, align 8
  %34 = shl i32 %31, 12
  %35 = and i32 %33, 4095
  %36 = or disjoint i32 %35, %34
  store i32 %36, ptr %1, align 8
  br label %85

37:                                               ; preds = %3
  %38 = and i32 %4, 15
  %39 = icmp eq i32 %38, 15
  br i1 %39, label %40, label %85

40:                                               ; preds = %37
  %41 = add nuw nsw i32 %5, 1
  %42 = lshr exact i32 %41, 4
  %43 = getelementptr inbounds nuw i8, ptr %0, i64 40
  %44 = load i32, ptr %43, align 8, !tbaa !48
  %45 = add nsw i32 %44, %42
  %46 = getelementptr inbounds nuw i8, ptr %0, i64 44
  %47 = load i32, ptr %46, align 4, !tbaa !49
  %.not.i11 = icmp slt i32 %45, %47
  br i1 %.not.i11, label %._crit_edge.i12, label %48

._crit_edge.i12:                                  ; preds = %40
  %.phi.trans.insert.i13 = getelementptr inbounds nuw i8, ptr %0, i64 32
  %.pre.i14 = load ptr, ptr %.phi.trans.insert.i13, align 8, !tbaa !33
  br label %Rtm_ObjTransferToBigger.exit

48:                                               ; preds = %40
  %49 = shl nsw i32 %47, 1
  %50 = tail call range(i32 -2147483647, -2147483648) i32 @llvm.smax.i32(i32 %49, i32 1024)
  %51 = getelementptr inbounds nuw i8, ptr %0, i64 32
  %52 = load ptr, ptr %51, align 8, !tbaa !33
  %.not24.i = icmp eq ptr %52, null
  %53 = zext nneg i32 %50 to i64
  %54 = shl nuw nsw i64 %53, 2
  br i1 %.not24.i, label %57, label %55

55:                                               ; preds = %48
  %56 = tail call ptr @realloc(ptr noundef nonnull %52, i64 noundef %54) #24
  %.pre25.pre.i = load i32, ptr %43, align 8, !tbaa !48
  br label %59

57:                                               ; preds = %48
  %58 = tail call noalias ptr @malloc(i64 noundef %54) #22
  br label %59

59:                                               ; preds = %57, %55
  %.pre25.i = phi i32 [ %.pre25.pre.i, %55 ], [ %44, %57 ]
  %60 = phi ptr [ %56, %55 ], [ %58, %57 ]
  store ptr %60, ptr %51, align 8, !tbaa !33
  store i32 %50, ptr %46, align 4, !tbaa !49
  %.pre26.i = load i32, ptr %1, align 8
  br label %Rtm_ObjTransferToBigger.exit

Rtm_ObjTransferToBigger.exit:                     ; preds = %._crit_edge.i12, %59
  %61 = phi i32 [ %4, %._crit_edge.i12 ], [ %.pre26.i, %59 ]
  %62 = phi i32 [ %44, %._crit_edge.i12 ], [ %.pre25.i, %59 ]
  %63 = phi ptr [ %.pre.i14, %._crit_edge.i12 ], [ %60, %59 ]
  %64 = getelementptr inbounds nuw i8, ptr %0, i64 32
  %65 = sext i32 %62 to i64
  %66 = getelementptr inbounds i32, ptr %63, i64 %65
  %67 = lshr i32 %61, 12
  %68 = zext nneg i32 %67 to i64
  %69 = getelementptr inbounds nuw i32, ptr %63, i64 %68
  %70 = lshr exact i32 %41, 2
  %71 = zext nneg i32 %70 to i64
  tail call void @llvm.memcpy.p0.p0.i64(ptr noundef nonnull align 4 dereferenceable(1) %66, ptr noundef nonnull align 4 dereferenceable(1) %69, i64 %71, i1 false)
  %72 = load ptr, ptr %64, align 8, !tbaa !33
  %73 = load i32, ptr %43, align 8, !tbaa !48
  %74 = add nsw i32 %73, %42
  %75 = sext i32 %74 to i64
  %76 = getelementptr inbounds i32, ptr %72, i64 %75
  store i32 0, ptr %76, align 4, !tbaa !29
  %77 = load i32, ptr %43, align 8, !tbaa !48
  %78 = load i32, ptr %1, align 8
  %79 = shl i32 %77, 12
  %80 = and i32 %78, 4095
  %81 = or disjoint i32 %80, %79
  store i32 %81, ptr %1, align 8
  %82 = add nuw nsw i32 %42, 1
  %83 = load i32, ptr %43, align 8, !tbaa !48
  %84 = add nsw i32 %82, %83
  store i32 %84, ptr %43, align 8, !tbaa !48
  %.pre18 = load i32, ptr %1, align 8
  br label %85

85:                                               ; preds = %37, %Rtm_ObjTransferToBigger.exit, %Rtm_ObjTransferToBig.exit
  %86 = phi i32 [ %4, %37 ], [ %.pre18, %Rtm_ObjTransferToBigger.exit ], [ %36, %Rtm_ObjTransferToBig.exit ]
  %87 = and i32 %86, 4094
  %88 = icmp samesign ugt i32 %87, 9
  br i1 %88, label %89, label %110

89:                                               ; preds = %85
  %90 = getelementptr i8, ptr %0, i64 32
  %.val = load ptr, ptr %90, align 8, !tbaa !33
  %91 = lshr i32 %86, 12
  %92 = zext nneg i32 %91 to i64
  %93 = getelementptr inbounds nuw i32, ptr %.val, i64 %92
  %narrow.i = add i32 %86, 1
  %94 = and i32 %narrow.i, 4095
  %95 = and i32 %86, -4096
  %96 = or disjoint i32 %94, %95
  store i32 %96, ptr %1, align 8
  %97 = lshr i32 %94, 4
  %98 = and i32 %narrow.i, 15
  %99 = icmp ne i32 %98, 0
  %100 = zext i1 %99 to i32
  %101 = add nuw nsw i32 %97, %100
  %102 = zext nneg i32 %101 to i64
  %103 = getelementptr inbounds nuw i32, ptr %93, i64 %102
  %.not.i15 = icmp eq i32 %101, 0
  br i1 %.not.i15, label %Rtm_ObjAddFirst2.exit, label %.lr.ph.i

.lr.ph.i:                                         ; preds = %89, %.lr.ph.i
  %.02.i = phi i32 [ %105, %.lr.ph.i ], [ %2, %89 ]
  %.0111.i = phi ptr [ %108, %.lr.ph.i ], [ %93, %89 ]
  %104 = load i32, ptr %.0111.i, align 4, !tbaa !29
  %105 = lshr i32 %104, 30
  %106 = shl i32 %104, 2
  %107 = or disjoint i32 %106, %.02.i
  store i32 %107, ptr %.0111.i, align 4, !tbaa !29
  %108 = getelementptr inbounds nuw i8, ptr %.0111.i, i64 4
  %109 = icmp ult ptr %108, %103
  br i1 %109, label %.lr.ph.i, label %Rtm_ObjAddFirst2.exit, !llvm.loop !53

110:                                              ; preds = %85
  %111 = lshr i32 %86, 10
  %112 = and i32 %111, 1048572
  %113 = or disjoint i32 %112, %2
  %114 = shl nuw i32 %113, 12
  %narrow.i17 = add i32 %86, 1
  %115 = and i32 %narrow.i17, 4095
  %116 = or disjoint i32 %114, %115
  store i32 %116, ptr %1, align 8
  br label %Rtm_ObjAddFirst2.exit

Rtm_ObjAddFirst2.exit:                            ; preds = %.lr.ph.i, %89, %110
  ret void
}